; ModuleID = '28/1471.c'
source_filename = "28/1471.c"
target datalayout = "e-m:e-p270:32:32-p271:32:32-p272:64:64-i64:64-f80:128-n8:16:32:64-S128"
target triple = "x86_64-pc-linux-gnu"

@.str = private unnamed_addr constant [3 x i8] c"%d\00", align 1
@.str.1 = private unnamed_addr constant [4 x i8] c",%d\00", align 1

; Function Attrs: noinline nounwind uwtable
define dso_local void @main() #0 {
  %1 = alloca i32, align 4
  %2 = alloca i32, align 4
  %3 = alloca i32, align 4
  %4 = alloca i32, align 4
  %5 = alloca [6000 x i8], align 16
  store i32 0, i32* %2, align 4
  store i32 1, i32* %3, align 4
  store i32 1, i32* %4, align 4
  %6 = getelementptr inbounds [6000 x i8], [6000 x i8]* %5, i64 0, i64 0
  %7 = call i32 (i8*, ...) bitcast (i32 (...)* @gets to i32 (i8*, ...)*)(i8* %6)
  store i32 0, i32* %1, align 4
  br label %8

8:                                                ; preds = %80, %0
  %9 = load i32, i32* %1, align 4
  %10 = icmp slt i32 %9, 6000
  br i1 %10, label %11, label %83

11:                                               ; preds = %8
  %12 = load i32, i32* %1, align 4
  %13 = sext i32 %12 to i64
  %14 = getelementptr inbounds [6000 x i8], [6000 x i8]* %5, i64 0, i64 %13
  %15 = load i8, i8* %14, align 1
  %16 = sext i8 %15 to i32
  %17 = icmp ne i32 %16, 32
  br i1 %17, label %18, label %28

18:                                               ; preds = %11
  %19 = load i32, i32* %1, align 4
  %20 = sext i32 %19 to i64
  %21 = getelementptr inbounds [6000 x i8], [6000 x i8]* %5, i64 0, i64 %20
  %22 = load i8, i8* %21, align 1
  %23 = sext i8 %22 to i32
  %24 = icmp ne i32 %23, 0
  br i1 %24, label %25, label %28

25:                                               ; preds = %18
  store i32 1, i32* %3, align 4
  %26 = load i32, i32* %2, align 4
  %27 = add nsw i32 %26, 1
  store i32 %27, i32* %2, align 4
  br label %79

28:                                               ; preds = %18, %11
  %29 = load i32, i32* %1, align 4
  %30 = sext i32 %29 to i64
  %31 = getelementptr inbounds [6000 x i8], [6000 x i8]* %5, i64 0, i64 %30
  %32 = load i8, i8* %31, align 1
  %33 = sext i8 %32 to i32
  %34 = icmp eq i32 %33, 32
  br i1 %34, label %35, label %56

35:                                               ; preds = %28
  %36 = load i32, i32* %3, align 4
  %37 = icmp eq i32 %36, 1
  br i1 %37, label %38, label %44

38:                                               ; preds = %35
  %39 = load i32, i32* %4, align 4
  %40 = icmp eq i32 %39, 1
  br i1 %40, label %41, label %44

41:                                               ; preds = %38
  %42 = load i32, i32* %2, align 4
  %43 = call i32 (i8*, ...) @printf(i8* getelementptr inbounds ([3 x i8], [3 x i8]* @.str, i64 0, i64 0), i32 %42)
  store i32 0, i32* %4, align 4
  br label %55

44:                                               ; preds = %38, %35
  %45 = load i32, i32* %3, align 4
  %46 = icmp eq i32 %45, 1
  br i1 %46, label %47, label %53

47:                                               ; preds = %44
  %48 = load i32, i32* %4, align 4
  %49 = icmp eq i32 %48, 0
  br i1 %49, label %50, label %53

50:                                               ; preds = %47
  %51 = load i32, i32* %2, align 4
  %52 = call i32 (i8*, ...) @printf(i8* getelementptr inbounds ([4 x i8], [4 x i8]* @.str.1, i64 0, i64 0), i32 %51)
  br label %54

53:                                               ; preds = %47, %44
  br label %80

54:                                               ; preds = %50
  br label %55

55:                                               ; preds = %54, %41
  store i32 0, i32* %3, align 4
  store i32 0, i32* %2, align 4
  br label %78

56:                                               ; preds = %28
  %57 = load i32, i32* %1, align 4
  %58 = sext i32 %57 to i64
  %59 = getelementptr inbounds [6000 x i8], [6000 x i8]* %5, i64 0, i64 %58
  %60 = load i8, i8* %59, align 1
  %61 = sext i8 %60 to i32
  %62 = icmp eq i32 %61, 0
  br i1 %62, label %63, label %77

63:                                               ; preds = %56
  %64 = load i32, i32* %4, align 4
  %65 = icmp eq i32 %64, 0
  br i1 %65, label %66, label %69

66:                                               ; preds = %63
  %67 = load i32, i32* %2, align 4
  %68 = call i32 (i8*, ...) @printf(i8* getelementptr inbounds ([4 x i8], [4 x i8]* @.str.1, i64 0, i64 0), i32 %67)
  br label %76

69:                                               ; preds = %63
  %70 = load i32, i32* %4, align 4
  %71 = icmp eq i32 %70, 1
  br i1 %71, label %72, label %75

72:                                               ; preds = %69
  %73 = load i32, i32* %2, align 4
  %74 = call i32 (i8*, ...) @printf(i8* getelementptr inbounds ([3 x i8], [3 x i8]* @.str, i64 0, i64 0), i32 %73)
  br label %75

75:                                               ; preds = %72, %69
  br label %76

76:                                               ; preds = %75, %66
  br label %83

77:                                               ; preds = %56
  br label %78

78:                                               ; preds = %77, %55
  br label %79

79:                                               ; preds = %78, %25
  br label %80

80:                                               ; preds = %79, %53
  %81 = load i32, i32* %1, align 4
  %82 = add nsw i32 %81, 1
  store i32 %82, i32* %1, align 4
  br label %8

83:                                               ; preds = %76, %8
  ret void
}

declare dso_local i32 @gets(...) #1

declare dso_local i32 @printf(i8*, ...) #1


!llvm.module.flags = !{!0}
!llvm.ident = !{!1}

!0 = !{i32 1, !"wchar_size", i32 4}
!1 = !{!"clang version 10.0.0-4ubuntu1 "}
